target datalayout = "e-m:e-p270:32:32-p271:32:32-p272:64:64-i64:64-i128:128-f80:128-n8:16:32:64-S128"
target triple = "x86_64-pc-linux-gnu"

; Function Attrs: mustprogress uwtable
define i32 @zmq_ctx_term(ptr noundef %0) #1 {
  %2 = alloca i32, align 4
  %3 = alloca ptr, align 8
  %4 = alloca i32, align 4
  %5 = alloca i32, align 4
  store ptr %0, ptr %3, align 8, !tbaa !12
  %6 = load ptr, ptr %3, align 8, !tbaa !12
  %7 = icmp ne ptr %6, null
  br i1 %7, label %8, label %11

8:                                                ; preds = %1
  %9 = load ptr, ptr %3, align 8, !tbaa !12
  %10 = call noundef zeroext i1 @_ZNK3zmq5ctx_t9check_tagEv(ptr noundef nonnull align 8 dereferenceable(648) %9)
  br i1 %10, label %13, label %11

11:                                               ; preds = %8, %1
  %12 = call ptr @__errno_location() #19
  store i32 14, ptr %12, align 4, !tbaa !8
  store i32 -1, ptr %2, align 4
  br label %28

13:                                               ; preds = %8
  call void @llvm.lifetime.start.p0(i64 4, ptr %4) #20
  %14 = load ptr, ptr %3, align 8, !tbaa !12
  %15 = call noundef i32 @_ZN3zmq5ctx_t9terminateEv(ptr noundef nonnull align 8 dereferenceable(648) %14)
  store i32 %15, ptr %4, align 4, !tbaa !8
  call void @llvm.lifetime.start.p0(i64 4, ptr %5) #20
  %16 = call ptr @__errno_location() #19
  %17 = load i32, ptr %16, align 4, !tbaa !8
  store i32 %17, ptr %5, align 4, !tbaa !8
  %18 = load i32, ptr %4, align 4, !tbaa !8
  %19 = icmp ne i32 %18, 0
  br i1 %19, label %20, label %23

20:                                               ; preds = %13
  %21 = load i32, ptr %5, align 4, !tbaa !8
  %22 = icmp ne i32 %21, 4
  br i1 %22, label %23, label %24

23:                                               ; preds = %20, %13
  call void @_ZN3zmq16shutdown_networkEv()
  br label %24

24:                                               ; preds = %23, %20
  %25 = load i32, ptr %5, align 4, !tbaa !8
  %26 = call ptr @__errno_location() #19
  store i32 %25, ptr %26, align 4, !tbaa !8
  %27 = load i32, ptr %4, align 4, !tbaa !8
  store i32 %27, ptr %2, align 4
  call void @llvm.lifetime.end.p0(i64 4, ptr %5) #20
  call void @llvm.lifetime.end.p0(i64 4, ptr %4) #20
  br label %28

28:                                               ; preds = %24, %11
  %29 = load i32, ptr %2, align 4
  ret i32 %29
}

; Function Attrs: mustprogress uwtable
define i32 @zmq_term(ptr noundef %0) #1 {
  %2 = alloca ptr, align 8
  store ptr %0, ptr %2, align 8, !tbaa !12
  %3 = load ptr, ptr %2, align 8, !tbaa !12
  %4 = call i32 @zmq_ctx_term(ptr noundef %3)
  ret i32 %4
}