; Function Attrs: mustprogress uwtable
define noundef i32 @zmq_term(ptr noundef %0) local_unnamed_addr #1 {
  %.not.i = icmp eq ptr %0, null
  br i1 %.not.i, label %4, label %2

2:                                                ; preds = %1
  %3 = tail call noundef zeroext i1 @_ZNK3zmq5ctx_t9check_tagEv(ptr noundef nonnull align 8 dereferenceable(648) %0)
  br i1 %3, label %6, label %4

4:                                                ; preds = %2, %1
  %5 = tail call ptr @__errno_location() #20
  store i32 14, ptr %5, align 4, !tbaa !3
  br label %zmq_ctx_term.exit

6:                                                ; preds = %2
  %7 = tail call noundef i32 @_ZN3zmq5ctx_t9terminateEv(ptr noundef nonnull align 8 dereferenceable(648) %0)
  %8 = tail call ptr @__errno_location() #20
  %9 = load i32, ptr %8, align 4, !tbaa !3
  %10 = icmp eq i32 %7, 0
  %11 = icmp ne i32 %9, 4
  %or.cond.i = select i1 %10, i1 true, i1 %11
  br i1 %or.cond.i, label %12, label %13

12:                                               ; preds = %6
  tail call void @_ZN3zmq16shutdown_networkEv()
  br label %13

13:                                               ; preds = %12, %6
  store i32 %9, ptr %8, align 4, !tbaa !3
  br label %zmq_ctx_term.exit

zmq_ctx_term.exit:                                ; preds = %4, %13
  %.0.i = phi i32 [ %7, %13 ], [ -1, %4 ]
  ret i32 %.0.i
}